target datalayout = "e-m:e-p270:32:32-p271:32:32-p272:64:64-i64:64-i128:128-f80:128-n8:16:32:64-S128"
target triple = "x86_64-pc-linux-gnu"

%struct.client = type { i64, i64, ptr, i8, i8, i8, i8, i32, ptr, ptr, ptr, ptr, ptr, i64, i64, i32, ptr, i32, i32, ptr, i64, ptr, ptr, ptr, ptr, ptr, i32, i32, i64, ptr, i64, ptr, i64, i64, i64, i32, ptr, i64, i64, i32, i32, i32, i32, i64, i64, ptr, i64, i64, i64, i64, i64, i64, i64, i64, [41 x i8], i32, ptr, i32, i32, i64, %struct.multiState, %struct.blockingState, i64, ptr, ptr, ptr, ptr, ptr, ptr, ptr, ptr, ptr, ptr, ptr, ptr, ptr, ptr, i64, ptr, i64, i32, ptr, ptr, ptr, i64, %struct.listNode, i64, i64, i32, i64, ptr }
%struct.multiState = type { ptr, i32, i32, i32, i64, i32 }
%struct.blockingState = type { i32, i64, i32, ptr, i32, i32, i64, ptr, ptr, i64 }
%struct.listNode = type { ptr, ptr, ptr }

; Function Attrs: nounwind uwtable
define dso_local void @setexCommand(ptr noundef %0) #0 {
  %2 = alloca ptr, align 8
  store ptr %0, ptr %2, align 8, !tbaa !5
  %3 = load ptr, ptr %2, align 8, !tbaa !5
  %4 = getelementptr inbounds nuw %struct.client, ptr %3, i32 0, i32 16
  %5 = load ptr, ptr %4, align 8, !tbaa !63
  %6 = getelementptr inbounds ptr, ptr %5, i64 3
  %7 = load ptr, ptr %6, align 8, !tbaa !12
  %8 = call ptr @tryObjectEncoding(ptr noundef %7)
  %9 = load ptr, ptr %2, align 8, !tbaa !5
  %10 = getelementptr inbounds nuw %struct.client, ptr %9, i32 0, i32 16
  %11 = load ptr, ptr %10, align 8, !tbaa !63
  %12 = getelementptr inbounds ptr, ptr %11, i64 3
  store ptr %8, ptr %12, align 8, !tbaa !12
  %13 = load ptr, ptr %2, align 8, !tbaa !5
  %14 = load ptr, ptr %2, align 8, !tbaa !5
  %15 = getelementptr inbounds nuw %struct.client, ptr %14, i32 0, i32 16
  %16 = load ptr, ptr %15, align 8, !tbaa !63
  %17 = getelementptr inbounds ptr, ptr %16, i64 1
  %18 = load ptr, ptr %17, align 8, !tbaa !12
  %19 = load ptr, ptr %2, align 8, !tbaa !5
  %20 = getelementptr inbounds nuw %struct.client, ptr %19, i32 0, i32 16
  %21 = load ptr, ptr %20, align 8, !tbaa !63
  %22 = getelementptr inbounds ptr, ptr %21, i64 3
  %23 = load ptr, ptr %22, align 8, !tbaa !12
  %24 = load ptr, ptr %2, align 8, !tbaa !5
  %25 = getelementptr inbounds nuw %struct.client, ptr %24, i32 0, i32 16
  %26 = load ptr, ptr %25, align 8, !tbaa !63
  %27 = getelementptr inbounds ptr, ptr %26, i64 2
  %28 = load ptr, ptr %27, align 8, !tbaa !12
  call void @setGenericCommand(ptr noundef %13, i32 noundef 4, ptr noundef %18, ptr noundef %23, ptr noundef %28, i32 noundef 0, ptr noundef null, ptr noundef null)
  ret void
}