; Function Attrs: nounwind uwtable
define dso_local void @setexCommand(ptr noundef %0) local_unnamed_addr #0 {
  %2 = getelementptr inbounds nuw i8, ptr %0, i64 96
  %3 = load ptr, ptr %2, align 8, !tbaa !9
  %4 = getelementptr inbounds nuw i8, ptr %3, i64 24
  %5 = load ptr, ptr %4, align 8, !tbaa !29
  %6 = tail call ptr @tryObjectEncoding(ptr noundef %5) #11
  %7 = load ptr, ptr %2, align 8, !tbaa !9
  %8 = getelementptr inbounds nuw i8, ptr %7, i64 24
  store ptr %6, ptr %8, align 8, !tbaa !29
  %9 = getelementptr inbounds nuw i8, ptr %7, i64 8
  %10 = load ptr, ptr %9, align 8, !tbaa !29
  %11 = getelementptr inbounds nuw i8, ptr %7, i64 16
  %12 = load ptr, ptr %11, align 8, !tbaa !29
  tail call void @setGenericCommand(ptr noundef %0, i32 noundef 4, ptr noundef %10, ptr noundef %6, ptr noundef %12, i32 noundef 0, ptr noundef null, ptr noundef null)
  ret void
}